; Function Attrs: nofree norecurse nosync nounwind memory(readwrite, inaccessiblemem: none) uwtable
define internal noundef i32 @ipvideo_decode_block_opcode_0xE(ptr noundef captures(none) %0, ptr readnone captures(none) %1) #6 {
  %3 = getelementptr inbounds nuw i8, ptr %0, i64 488
  %4 = getelementptr inbounds nuw i8, ptr %0, i64 496
  %5 = load ptr, ptr %4, align 8, !tbaa !60
  %6 = load ptr, ptr %3, align 8, !tbaa !58
  %7 = ptrtoint ptr %5 to i64
  %8 = ptrtoint ptr %6 to i64
  %9 = sub i64 %7, %8
  %10 = icmp slt i64 %9, 1
  br i1 %10, label %11, label %12

11:                                               ; preds = %2
  store ptr %5, ptr %3, align 8, !tbaa !58
  br label %bytestream2_get_byte.exit

12:                                               ; preds = %2
  %13 = getelementptr inbounds nuw i8, ptr %6, i64 1
  store ptr %13, ptr %3, align 8, !tbaa !53
  %14 = load i8, ptr %6, align 1, !tbaa !54
  br label %bytestream2_get_byte.exit

bytestream2_get_byte.exit:                        ; preds = %11, %12
  %.0.i = phi i8 [ 0, %11 ], [ %14, %12 ]
  %15 = getelementptr inbounds nuw i8, ptr %0, i64 536
  %16 = getelementptr inbounds nuw i8, ptr %0, i64 548
  %.pre = load ptr, ptr %15, align 8, !tbaa !67
  br label %17

17:                                               ; preds = %bytestream2_get_byte.exit, %17
  %18 = phi ptr [ %.pre, %bytestream2_get_byte.exit ], [ %22, %17 ]
  %.06 = phi i32 [ 0, %bytestream2_get_byte.exit ], [ %23, %17 ]
  tail call void @llvm.memset.p0.i64(ptr noundef nonnull align 1 dereferenceable(8) %18, i8 %.0.i, i64 8, i1 false)
  %19 = load i32, ptr %16, align 4, !tbaa !63
  %20 = load ptr, ptr %15, align 8, !tbaa !67
  %21 = sext i32 %19 to i64
  %22 = getelementptr inbounds i8, ptr %20, i64 %21
  store ptr %22, ptr %15, align 8, !tbaa !67
  %23 = add nuw nsw i32 %.06, 1
  %exitcond.not = icmp eq i32 %23, 8
  br i1 %exitcond.not, label %24, label %17, !llvm.loop !113

24:                                               ; preds = %17
  ret i32 0
}